target datalayout = "e-m:e-p270:32:32-p271:32:32-p272:64:64-i64:64-i128:128-f80:128-n8:16:32:64-S128"
target triple = "x86_64-pc-linux-gnu"

%"class.std::unique_ptr" = type { %"struct.std::__uniq_ptr_data" }
%"struct.std::__uniq_ptr_data" = type { %"class.std::__uniq_ptr_impl" }
%"class.std::__uniq_ptr_impl" = type { %"class.std::tuple" }
%"class.std::tuple" = type { %"struct.std::_Tuple_impl" }
%"struct.std::_Tuple_impl" = type { %"struct.std::_Head_base.2" }
%"struct.std::_Head_base.2" = type { ptr }
%"class.g2o::csparse::CSparse" = type { %"class.std::unique_ptr" }
%"class.g2o::csparse::CSparse::Impl" = type { ptr, i32, ptr, ptr, ptr, %"struct.g2o::csparse::CSparseExt" }
%"struct.g2o::csparse::CSparseExt" = type <{ %struct.cs_di_sparse, i32, [4 x i8] }>
%struct.cs_di_sparse = type { i32, i32, i32, ptr, ptr, ptr, i32 }
%"struct.g2o::csparse::CSparse::FactorView" = type { ptr, ptr, ptr, ptr, ptr }
%struct.cs_di_numeric = type { ptr, ptr, ptr, ptr }
%struct.cs_di_symbolic = type { ptr, ptr, ptr, ptr, ptr, i32, double, double }

; Function Attrs: mustprogress nounwind uwtable
define linkonce_odr noundef nonnull align 8 dereferenceable(8) ptr @_ZNSt10_Head_baseILm0EPN3g2o7csparse7CSparse4ImplELb0EE7_M_headERKS5_(ptr noundef nonnull align 8 dereferenceable(8) %0) #1 comdat align 2 {
  %2 = alloca ptr, align 8
  store ptr %0, ptr %2, align 8, !tbaa !116
  %3 = load ptr, ptr %2, align 8, !tbaa !116
  %4 = getelementptr inbounds nuw %"struct.std::_Head_base.2", ptr %3, i32 0, i32 0
  ret ptr %4
}

; Function Attrs: mustprogress nounwind uwtable
define linkonce_odr noundef nonnull align 8 dereferenceable(8) ptr @_ZNSt11_Tuple_implILm0EJPN3g2o7csparse7CSparse4ImplESt14default_deleteIS3_EEE7_M_headERKS7_(ptr noundef nonnull align 8 dereferenceable(8) %0) #1 comdat align 2 {
  %2 = alloca ptr, align 8
  store ptr %0, ptr %2, align 8, !tbaa !112
  %3 = load ptr, ptr %2, align 8, !tbaa !112
  %4 = call noundef nonnull align 8 dereferenceable(8) ptr @_ZNSt10_Head_baseILm0EPN3g2o7csparse7CSparse4ImplELb0EE7_M_headERKS5_(ptr noundef nonnull align 8 dereferenceable(8) %3) #20
  ret ptr %4
}

; Function Attrs: mustprogress nounwind uwtable
define linkonce_odr noundef nonnull align 8 dereferenceable(8) ptr @_ZSt12__get_helperILm0EPN3g2o7csparse7CSparse4ImplEJSt14default_deleteIS3_EEERKT0_RKSt11_Tuple_implIXT_EJS7_DpT1_EE(ptr noundef nonnull align 8 dereferenceable(8) %0) #1 comdat {
  %2 = alloca ptr, align 8
  store ptr %0, ptr %2, align 8, !tbaa !112
  %3 = load ptr, ptr %2, align 8, !tbaa !112
  %4 = call noundef nonnull align 8 dereferenceable(8) ptr @_ZNSt11_Tuple_implILm0EJPN3g2o7csparse7CSparse4ImplESt14default_deleteIS3_EEE7_M_headERKS7_(ptr noundef nonnull align 8 dereferenceable(8) %3) #20
  ret ptr %4
}

; Function Attrs: mustprogress nounwind uwtable
define linkonce_odr noundef nonnull align 8 dereferenceable(8) ptr @_ZSt3getILm0EJPN3g2o7csparse7CSparse4ImplESt14default_deleteIS3_EEERKNSt13tuple_elementIXT_ESt5tupleIJDpT0_EEE4typeERKSB_(ptr noundef nonnull align 8 dereferenceable(8) %0) #1 comdat {
  %2 = alloca ptr, align 8
  store ptr %0, ptr %2, align 8, !tbaa !110
  %3 = load ptr, ptr %2, align 8, !tbaa !110
  %4 = call noundef nonnull align 8 dereferenceable(8) ptr @_ZSt12__get_helperILm0EPN3g2o7csparse7CSparse4ImplEJSt14default_deleteIS3_EEERKT0_RKSt11_Tuple_implIXT_EJS7_DpT1_EE(ptr noundef nonnull align 8 dereferenceable(8) %3) #20
  ret ptr %4
}

; Function Attrs: mustprogress nounwind uwtable
define linkonce_odr noundef ptr @_ZNKSt15__uniq_ptr_implIN3g2o7csparse7CSparse4ImplESt14default_deleteIS3_EE6_M_ptrEv(ptr noundef nonnull align 8 dereferenceable(8) %0) #1 comdat align 2 {
  %2 = alloca ptr, align 8
  store ptr %0, ptr %2, align 8, !tbaa !108
  %3 = load ptr, ptr %2, align 8
  %4 = getelementptr inbounds nuw %"class.std::__uniq_ptr_impl", ptr %3, i32 0, i32 0
  %5 = call noundef nonnull align 8 dereferenceable(8) ptr @_ZSt3getILm0EJPN3g2o7csparse7CSparse4ImplESt14default_deleteIS3_EEERKNSt13tuple_elementIXT_ESt5tupleIJDpT0_EEE4typeERKSB_(ptr noundef nonnull align 8 dereferenceable(8) %4) #20
  %6 = load ptr, ptr %5, align 8, !tbaa !20
  ret ptr %6
}

; Function Attrs: mustprogress nounwind uwtable
define linkonce_odr noundef ptr @_ZNKSt10unique_ptrIN3g2o7csparse7CSparse4ImplESt14default_deleteIS3_EE3getEv(ptr noundef nonnull align 8 dereferenceable(8) %0) #1 comdat align 2 {
  %2 = alloca ptr, align 8
  store ptr %0, ptr %2, align 8, !tbaa !16
  %3 = load ptr, ptr %2, align 8
  %4 = getelementptr inbounds nuw %"class.std::unique_ptr", ptr %3, i32 0, i32 0
  %5 = call noundef ptr @_ZNKSt15__uniq_ptr_implIN3g2o7csparse7CSparse4ImplESt14default_deleteIS3_EE6_M_ptrEv(ptr noundef nonnull align 8 dereferenceable(8) %4) #20
  ret ptr %5
}

; Function Attrs: mustprogress nounwind uwtable
define linkonce_odr void @_ZN3g2o7csparse7CSparse10FactorViewC2ERiRPiS5_RPdS5_(ptr noundef nonnull align 8 dereferenceable(40) %0, ptr noundef nonnull align 4 dereferenceable(4) %1, ptr noundef nonnull align 8 dereferenceable(8) %2, ptr noundef nonnull align 8 dereferenceable(8) %3, ptr noundef nonnull align 8 dereferenceable(8) %4, ptr noundef nonnull align 8 dereferenceable(8) %5) unnamed_addr #1 comdat align 2 {
  %7 = alloca ptr, align 8
  %8 = alloca ptr, align 8
  %9 = alloca ptr, align 8
  %10 = alloca ptr, align 8
  %11 = alloca ptr, align 8
  %12 = alloca ptr, align 8
  store ptr %0, ptr %7, align 8, !tbaa !73
  store ptr %1, ptr %8, align 8, !tbaa !46
  store ptr %2, ptr %9, align 8, !tbaa !66
  store ptr %3, ptr %10, align 8, !tbaa !66
  store ptr %4, ptr %11, align 8, !tbaa !67
  store ptr %5, ptr %12, align 8, !tbaa !66
  %13 = load ptr, ptr %7, align 8
  %14 = getelementptr inbounds nuw %"struct.g2o::csparse::CSparse::FactorView", ptr %13, i32 0, i32 0
  %15 = load ptr, ptr %8, align 8, !tbaa !46
  store ptr %15, ptr %14, align 8, !tbaa !46
  %16 = getelementptr inbounds nuw %"struct.g2o::csparse::CSparse::FactorView", ptr %13, i32 0, i32 1
  %17 = load ptr, ptr %9, align 8, !tbaa !66
  store ptr %17, ptr %16, align 8, !tbaa !66
  %18 = getelementptr inbounds nuw %"struct.g2o::csparse::CSparse::FactorView", ptr %13, i32 0, i32 2
  %19 = load ptr, ptr %10, align 8, !tbaa !66
  store ptr %19, ptr %18, align 8, !tbaa !66
  %20 = getelementptr inbounds nuw %"struct.g2o::csparse::CSparse::FactorView", ptr %13, i32 0, i32 3
  %21 = load ptr, ptr %11, align 8, !tbaa !67
  store ptr %21, ptr %20, align 8, !tbaa !67
  %22 = getelementptr inbounds nuw %"struct.g2o::csparse::CSparse::FactorView", ptr %13, i32 0, i32 4
  %23 = load ptr, ptr %12, align 8, !tbaa !66
  store ptr %23, ptr %22, align 8, !tbaa !66
  ret void
}

; Function Attrs: mustprogress nounwind uwtable
define linkonce_odr noundef ptr @_ZNKSt10unique_ptrIN3g2o7csparse7CSparse4ImplESt14default_deleteIS3_EEptEv(ptr noundef nonnull align 8 dereferenceable(8) %0) #1 comdat align 2 {
  %2 = alloca ptr, align 8
  store ptr %0, ptr %2, align 8, !tbaa !16
  %3 = load ptr, ptr %2, align 8
  %4 = call noundef ptr @_ZNKSt10unique_ptrIN3g2o7csparse7CSparse4ImplESt14default_deleteIS3_EE3getEv(ptr noundef nonnull align 8 dereferenceable(8) %3) #20
  ret ptr %4
}

; Function Attrs: mustprogress uwtable
define void @_ZN3g2o7csparse7CSparse6factorEv(ptr dead_on_unwind noalias writable sret(%"struct.g2o::csparse::CSparse::FactorView") align 8 %0, ptr noundef nonnull align 8 dereferenceable(8) %1) #3 align 2 {
  %3 = alloca ptr, align 8
  %4 = alloca ptr, align 8
  store ptr %1, ptr %3, align 8, !tbaa !14
  %5 = load ptr, ptr %3, align 8
  call void @llvm.lifetime.start.p0(i64 8, ptr %4) #20
  %6 = getelementptr inbounds nuw %"class.g2o::csparse::CSparse", ptr %5, i32 0, i32 0
  %7 = call noundef ptr @_ZNKSt10unique_ptrIN3g2o7csparse7CSparse4ImplESt14default_deleteIS3_EEptEv(ptr noundef nonnull align 8 dereferenceable(8) %6) #20
  %8 = getelementptr inbounds nuw %"class.g2o::csparse::CSparse::Impl", ptr %7, i32 0, i32 4
  %9 = load ptr, ptr %8, align 8, !tbaa !22
  store ptr %9, ptr %4, align 8, !tbaa !68
  %10 = load ptr, ptr %4, align 8, !tbaa !68
  %11 = getelementptr inbounds nuw %struct.cs_di_numeric, ptr %10, i32 0, i32 0
  %12 = load ptr, ptr %11, align 8, !tbaa !69
  %13 = getelementptr inbounds nuw %struct.cs_di_sparse, ptr %12, i32 0, i32 2
  %14 = load ptr, ptr %4, align 8, !tbaa !68
  %15 = getelementptr inbounds nuw %struct.cs_di_numeric, ptr %14, i32 0, i32 0
  %16 = load ptr, ptr %15, align 8, !tbaa !69
  %17 = getelementptr inbounds nuw %struct.cs_di_sparse, ptr %16, i32 0, i32 3
  %18 = load ptr, ptr %4, align 8, !tbaa !68
  %19 = getelementptr inbounds nuw %struct.cs_di_numeric, ptr %18, i32 0, i32 0
  %20 = load ptr, ptr %19, align 8, !tbaa !69
  %21 = getelementptr inbounds nuw %struct.cs_di_sparse, ptr %20, i32 0, i32 4
  %22 = load ptr, ptr %4, align 8, !tbaa !68
  %23 = getelementptr inbounds nuw %struct.cs_di_numeric, ptr %22, i32 0, i32 0
  %24 = load ptr, ptr %23, align 8, !tbaa !69
  %25 = getelementptr inbounds nuw %struct.cs_di_sparse, ptr %24, i32 0, i32 5
  %26 = getelementptr inbounds nuw %"class.g2o::csparse::CSparse", ptr %5, i32 0, i32 0
  %27 = call noundef ptr @_ZNKSt10unique_ptrIN3g2o7csparse7CSparse4ImplESt14default_deleteIS3_EEptEv(ptr noundef nonnull align 8 dereferenceable(8) %26) #20
  %28 = getelementptr inbounds nuw %"class.g2o::csparse::CSparse::Impl", ptr %27, i32 0, i32 0
  %29 = load ptr, ptr %28, align 8, !tbaa !72
  %30 = getelementptr inbounds nuw %struct.cs_di_symbolic, ptr %29, i32 0, i32 0
  call void @_ZN3g2o7csparse7CSparse10FactorViewC2ERiRPiS5_RPdS5_(ptr noundef nonnull align 8 dereferenceable(40) %0, ptr noundef nonnull align 4 dereferenceable(4) %13, ptr noundef nonnull align 8 dereferenceable(8) %17, ptr noundef nonnull align 8 dereferenceable(8) %21, ptr noundef nonnull align 8 dereferenceable(8) %25, ptr noundef nonnull align 8 dereferenceable(8) %30)
  call void @llvm.lifetime.end.p0(i64 8, ptr %4) #20
  ret void
}