; Function Attrs: mustprogress nofree norecurse nosync nounwind willreturn memory(read, argmem: readwrite, inaccessiblemem: none) uwtable
define void @_ZN3g2o7csparse7CSparse6factorEv(ptr dead_on_unwind noalias writable writeonly sret(%"struct.g2o::csparse::CSparse::FactorView") align 8 captures(none) initializes((0, 40)) %0, ptr noundef nonnull readonly align 8 captures(none) dereferenceable(8) %1) local_unnamed_addr #7 align 2 {
  %3 = load ptr, ptr %1, align 8, !tbaa !14
  %4 = getelementptr inbounds nuw i8, ptr %3, i64 32
  %5 = load ptr, ptr %4, align 8, !tbaa !16
  %6 = load ptr, ptr %5, align 8, !tbaa !49
  %7 = getelementptr inbounds nuw i8, ptr %6, i64 8
  %8 = getelementptr inbounds nuw i8, ptr %6, i64 16
  %9 = getelementptr inbounds nuw i8, ptr %6, i64 24
  %10 = getelementptr inbounds nuw i8, ptr %6, i64 32
  %11 = load ptr, ptr %3, align 8, !tbaa !52
  store ptr %7, ptr %0, align 8, !tbaa !32
  %12 = getelementptr inbounds nuw i8, ptr %0, i64 8
  store ptr %8, ptr %12, align 8, !tbaa !47
  %13 = getelementptr inbounds nuw i8, ptr %0, i64 16
  store ptr %9, ptr %13, align 8, !tbaa !47
  %14 = getelementptr inbounds nuw i8, ptr %0, i64 24
  store ptr %10, ptr %14, align 8, !tbaa !48
  %15 = getelementptr inbounds nuw i8, ptr %0, i64 32
  store ptr %11, ptr %15, align 8, !tbaa !47
  ret void
}